target datalayout = "e-m:e-p270:32:32-p271:32:32-p272:64:64-i64:64-i128:128-f80:128-n8:16:32:64-S128"
target triple = "x86_64-pc-linux-gnu"

%struct.SubscriptingRefState = type { i8, ptr, i32, ptr, ptr, ptr, i32, ptr, ptr, ptr, i64, i8, i64, i8 }
%struct.ArraySubWorkspace = type { i32, i16, i16, i8, i8, [6 x i32], [6 x i32] }
%struct.ExprEvalStep = type { i64, ptr, ptr, %union.anon }
%union.anon = type { %struct.anon.23 }
%struct.anon.23 = type { ptr, ptr, i32, i32, ptr, ptr }
%struct.anon.27 = type { ptr, ptr }

; Function Attrs: inlinehint nounwind uwtable
define internal i64 @PointerGetDatum(ptr noundef %0) #1 {
  %2 = alloca ptr, align 8
  store ptr %0, ptr %2, align 8
  %3 = load ptr, ptr %2, align 8
  %4 = ptrtoint ptr %3 to i64
  ret i64 %4
}

; Function Attrs: nounwind uwtable
define internal void @array_subscript_assign_slice(ptr noundef %0, ptr noundef %1, ptr noundef %2) #0 {
  %4 = alloca ptr, align 8
  %5 = alloca ptr, align 8
  %6 = alloca ptr, align 8
  %7 = alloca ptr, align 8
  %8 = alloca ptr, align 8
  %9 = alloca i64, align 8
  %10 = alloca i32, align 4
  store ptr %0, ptr %4, align 8
  store ptr %1, ptr %5, align 8
  store ptr %2, ptr %6, align 8
  call void @llvm.lifetime.start.p0(i64 8, ptr %7) #6
  %11 = load ptr, ptr %5, align 8
  %12 = getelementptr inbounds nuw %struct.ExprEvalStep, ptr %11, i32 0, i32 3
  %13 = getelementptr inbounds nuw %struct.anon.27, ptr %12, i32 0, i32 1
  %14 = load ptr, ptr %13, align 8
  store ptr %14, ptr %7, align 8
  call void @llvm.lifetime.start.p0(i64 8, ptr %8) #6
  %15 = load ptr, ptr %7, align 8
  %16 = getelementptr inbounds nuw %struct.SubscriptingRefState, ptr %15, i32 0, i32 1
  %17 = load ptr, ptr %16, align 8
  store ptr %17, ptr %8, align 8
  call void @llvm.lifetime.start.p0(i64 8, ptr %9) #6
  %18 = load ptr, ptr %5, align 8
  %19 = getelementptr inbounds nuw %struct.ExprEvalStep, ptr %18, i32 0, i32 1
  %20 = load ptr, ptr %19, align 8
  %21 = load i64, ptr %20, align 8
  store i64 %21, ptr %9, align 8
  %22 = load ptr, ptr %8, align 8
  %23 = getelementptr inbounds nuw %struct.ArraySubWorkspace, ptr %22, i32 0, i32 1
  %24 = load i16, ptr %23, align 4
  %25 = sext i16 %24 to i32
  %26 = icmp sgt i32 %25, 0
  br i1 %26, label %27, label %40

27:                                               ; preds = %3
  %28 = load ptr, ptr %5, align 8
  %29 = getelementptr inbounds nuw %struct.ExprEvalStep, ptr %28, i32 0, i32 2
  %30 = load ptr, ptr %29, align 8
  %31 = load i8, ptr %30, align 1, !range !4, !noundef !5
  %32 = trunc i8 %31 to i1
  br i1 %32, label %38, label %33

33:                                               ; preds = %27
  %34 = load ptr, ptr %7, align 8
  %35 = getelementptr inbounds nuw %struct.SubscriptingRefState, ptr %34, i32 0, i32 11
  %36 = load i8, ptr %35, align 8, !range !4, !noundef !5
  %37 = trunc i8 %36 to i1
  br i1 %37, label %38, label %39

38:                                               ; preds = %33, %27
  store i32 1, ptr %10, align 4
  br label %98

39:                                               ; preds = %33
  br label %40

40:                                               ; preds = %39, %3
  %41 = load ptr, ptr %5, align 8
  %42 = getelementptr inbounds nuw %struct.ExprEvalStep, ptr %41, i32 0, i32 2
  %43 = load ptr, ptr %42, align 8
  %44 = load i8, ptr %43, align 1, !range !4, !noundef !5
  %45 = trunc i8 %44 to i1
  br i1 %45, label %46, label %55

46:                                               ; preds = %40
  %47 = load ptr, ptr %8, align 8
  %48 = getelementptr inbounds nuw %struct.ArraySubWorkspace, ptr %47, i32 0, i32 0
  %49 = load i32, ptr %48, align 4
  %50 = call ptr @construct_empty_array(i32 noundef %49)
  %51 = call i64 @PointerGetDatum(ptr noundef %50)
  store i64 %51, ptr %9, align 8
  %52 = load ptr, ptr %5, align 8
  %53 = getelementptr inbounds nuw %struct.ExprEvalStep, ptr %52, i32 0, i32 2
  %54 = load ptr, ptr %53, align 8
  store i8 0, ptr %54, align 1
  br label %55

55:                                               ; preds = %46, %40
  %56 = load i64, ptr %9, align 8
  %57 = load ptr, ptr %7, align 8
  %58 = getelementptr inbounds nuw %struct.SubscriptingRefState, ptr %57, i32 0, i32 2
  %59 = load i32, ptr %58, align 8
  %60 = load ptr, ptr %8, align 8
  %61 = getelementptr inbounds nuw %struct.ArraySubWorkspace, ptr %60, i32 0, i32 5
  %62 = getelementptr inbounds [6 x i32], ptr %61, i64 0, i64 0
  %63 = load ptr, ptr %8, align 8
  %64 = getelementptr inbounds nuw %struct.ArraySubWorkspace, ptr %63, i32 0, i32 6
  %65 = getelementptr inbounds [6 x i32], ptr %64, i64 0, i64 0
  %66 = load ptr, ptr %7, align 8
  %67 = getelementptr inbounds nuw %struct.SubscriptingRefState, ptr %66, i32 0, i32 3
  %68 = load ptr, ptr %67, align 8
  %69 = load ptr, ptr %7, align 8
  %70 = getelementptr inbounds nuw %struct.SubscriptingRefState, ptr %69, i32 0, i32 7
  %71 = load ptr, ptr %70, align 8
  %72 = load ptr, ptr %7, align 8
  %73 = getelementptr inbounds nuw %struct.SubscriptingRefState, ptr %72, i32 0, i32 10
  %74 = load i64, ptr %73, align 8
  %75 = load ptr, ptr %7, align 8
  %76 = getelementptr inbounds nuw %struct.SubscriptingRefState, ptr %75, i32 0, i32 11
  %77 = load i8, ptr %76, align 8, !range !4, !noundef !5
  %78 = trunc i8 %77 to i1
  %79 = load ptr, ptr %8, align 8
  %80 = getelementptr inbounds nuw %struct.ArraySubWorkspace, ptr %79, i32 0, i32 1
  %81 = load i16, ptr %80, align 4
  %82 = sext i16 %81 to i32
  %83 = load ptr, ptr %8, align 8
  %84 = getelementptr inbounds nuw %struct.ArraySubWorkspace, ptr %83, i32 0, i32 2
  %85 = load i16, ptr %84, align 2
  %86 = sext i16 %85 to i32
  %87 = load ptr, ptr %8, align 8
  %88 = getelementptr inbounds nuw %struct.ArraySubWorkspace, ptr %87, i32 0, i32 3
  %89 = load i8, ptr %88, align 4, !range !4, !noundef !5
  %90 = trunc i8 %89 to i1
  %91 = load ptr, ptr %8, align 8
  %92 = getelementptr inbounds nuw %struct.ArraySubWorkspace, ptr %91, i32 0, i32 4
  %93 = load i8, ptr %92, align 1
  %94 = call i64 @array_set_slice(i64 noundef %56, i32 noundef %59, ptr noundef %62, ptr noundef %65, ptr noundef %68, ptr noundef %71, i64 noundef %74, i1 noundef zeroext %78, i32 noundef %82, i32 noundef %86, i1 noundef zeroext %90, i8 noundef signext %93)
  %95 = load ptr, ptr %5, align 8
  %96 = getelementptr inbounds nuw %struct.ExprEvalStep, ptr %95, i32 0, i32 1
  %97 = load ptr, ptr %96, align 8
  store i64 %94, ptr %97, align 8
  store i32 0, ptr %10, align 4
  br label %98

98:                                               ; preds = %55, %38
  call void @llvm.lifetime.end.p0(i64 8, ptr %9) #6
  call void @llvm.lifetime.end.p0(i64 8, ptr %8) #6
  call void @llvm.lifetime.end.p0(i64 8, ptr %7) #6
  %99 = load i32, ptr %10, align 4
  switch i32 %99, label %101 [
    i32 0, label %100
    i32 1, label %100
  ]

100:                                              ; preds = %98, %98
  ret void

101:                                              ; preds = %98
  unreachable
}