; Function Attrs: nounwind uwtable
define internal void @array_subscript_assign_slice(ptr readnone captures(none) %0, ptr noundef readonly captures(none) %1, ptr readnone captures(none) %2) #1 {
  %4 = getelementptr inbounds nuw i8, ptr %1, i64 32
  %5 = load ptr, ptr %4, align 8
  %6 = getelementptr inbounds nuw i8, ptr %5, i64 8
  %7 = load ptr, ptr %6, align 8
  %8 = getelementptr inbounds nuw i8, ptr %1, i64 8
  %9 = load ptr, ptr %8, align 8
  %10 = load i64, ptr %9, align 8
  %11 = getelementptr inbounds nuw i8, ptr %7, i64 4
  %12 = load i16, ptr %11, align 4
  %13 = icmp sgt i16 %12, 0
  %14 = getelementptr inbounds nuw i8, ptr %1, i64 16
  %15 = load ptr, ptr %14, align 8
  %16 = load i8, ptr %15, align 1, !range !4
  %17 = trunc nuw i8 %16 to i1
  br i1 %13, label %18, label %23

18:                                               ; preds = %3
  br i1 %17, label %55, label %19

19:                                               ; preds = %18
  %20 = getelementptr inbounds nuw i8, ptr %5, i64 88
  %21 = load i8, ptr %20, align 8, !range !4, !noundef !5
  %22 = trunc nuw i8 %21 to i1
  br i1 %22, label %55, label %.thread

23:                                               ; preds = %3
  br i1 %17, label %24, label %.thread

24:                                               ; preds = %23
  %25 = getelementptr inbounds nuw i8, ptr %1, i64 16
  %26 = load i32, ptr %7, align 4
  %27 = tail call ptr @construct_empty_array(i32 noundef %26) #7
  %28 = ptrtoint ptr %27 to i64
  %29 = load ptr, ptr %25, align 8
  store i8 0, ptr %29, align 1
  %.pre22 = load i16, ptr %11, align 4
  br label %.thread

.thread:                                          ; preds = %19, %24, %23
  %30 = phi i16 [ %.pre22, %24 ], [ %12, %23 ], [ %12, %19 ]
  %.0 = phi i64 [ %28, %24 ], [ %10, %23 ], [ %10, %19 ]
  %31 = getelementptr inbounds nuw i8, ptr %5, i64 16
  %32 = load i32, ptr %31, align 8
  %33 = getelementptr inbounds nuw i8, ptr %7, i64 12
  %34 = getelementptr inbounds nuw i8, ptr %7, i64 36
  %35 = getelementptr inbounds nuw i8, ptr %5, i64 24
  %36 = load ptr, ptr %35, align 8
  %37 = getelementptr inbounds nuw i8, ptr %5, i64 56
  %38 = load ptr, ptr %37, align 8
  %39 = getelementptr inbounds nuw i8, ptr %5, i64 80
  %40 = load i64, ptr %39, align 8
  %41 = getelementptr inbounds nuw i8, ptr %5, i64 88
  %42 = load i8, ptr %41, align 8, !range !4, !noundef !5
  %43 = trunc nuw i8 %42 to i1
  %44 = sext i16 %30 to i32
  %45 = getelementptr inbounds nuw i8, ptr %7, i64 6
  %46 = load i16, ptr %45, align 2
  %47 = sext i16 %46 to i32
  %48 = getelementptr inbounds nuw i8, ptr %7, i64 8
  %49 = load i8, ptr %48, align 4, !range !4, !noundef !5
  %50 = trunc nuw i8 %49 to i1
  %51 = getelementptr inbounds nuw i8, ptr %7, i64 9
  %52 = load i8, ptr %51, align 1
  %53 = tail call i64 @array_set_slice(i64 noundef %.0, i32 noundef %32, ptr noundef nonnull %33, ptr noundef nonnull %34, ptr noundef %36, ptr noundef %38, i64 noundef %40, i1 noundef zeroext %43, i32 noundef %44, i32 noundef %47, i1 noundef zeroext %50, i8 noundef signext %52) #7
  %54 = load ptr, ptr %8, align 8
  store i64 %53, ptr %54, align 8
  br label %55

55:                                               ; preds = %18, %19, %.thread
  ret void
}